target datalayout = "e-m:e-p270:32:32-p271:32:32-p272:64:64-i64:64-i128:128-f80:128-n8:16:32:64-S128"
target triple = "x86_64-pc-linux-gnu"

%struct.pg_conn = type { ptr, ptr, ptr, ptr, ptr, ptr, ptr, ptr, ptr, ptr, ptr, ptr, ptr, ptr, ptr, ptr, ptr, ptr, ptr, ptr, ptr, ptr, ptr, ptr, ptr, ptr, ptr, ptr, ptr, ptr, ptr, ptr, ptr, ptr, ptr, ptr, ptr, ptr, ptr, ptr, ptr, ptr, ptr, i8, ptr, i32, %struct.PGNoticeHooks, ptr, i32, i32, i32, i32, i32, [6 x i8], i8, i8, i32, i8, i8, i32, i8, i32, ptr, ptr, i32, i32, ptr, ptr, ptr, ptr, ptr, i32, %struct.SockAddr, %struct.SockAddr, i32, i32, i8, i8, i8, i8, i8, i8, ptr, i8, i32, [1 x ptr], i8, i8, ptr, ptr, i32, i32, i32, i8, i8, i32, i32, ptr, i8, i64, ptr, i64, ptr, i32, i32, ptr, i32, i8, i32, i32, i32, i32, ptr, %struct.pg_prng_state, ptr, i32, i32, i32, i32, ptr, i32, i32, i32, i32, ptr, i32, ptr, i8, ptr, ptr, ptr, i32, i8, i8, i8, i8, i8, i8, i8, i8, %struct.PQExpBufferData, i32, %struct.PQExpBufferData }
%struct.PGNoticeHooks = type { ptr, ptr, ptr, ptr }
%struct.SockAddr = type { %struct.sockaddr_storage, i32 }
%struct.sockaddr_storage = type { i16, [118 x i8], i64 }
%struct.pg_prng_state = type { i64, i64 }
%struct.PQExpBufferData = type { ptr, i64, i64 }
%struct.pg_cancel_conn = type { %struct.pg_conn }

@.str.4 = private unnamed_addr constant [32 x i8] c"unexpected response from server\00", align 1

; Function Attrs: nounwind uwtable
define i32 @PQcancelPoll(ptr noundef %0) #0 {
  %2 = alloca i32, align 4
  %3 = alloca ptr, align 8
  %4 = alloca ptr, align 8
  %5 = alloca i32, align 4
  %6 = alloca i32, align 4
  store ptr %0, ptr %3, align 8
  call void @llvm.lifetime.start.p0(i64 8, ptr %4) #10
  %7 = load ptr, ptr %3, align 8
  %8 = getelementptr inbounds nuw %struct.pg_cancel_conn, ptr %7, i32 0, i32 0
  store ptr %8, ptr %4, align 8
  call void @llvm.lifetime.start.p0(i64 4, ptr %5) #10
  %9 = load ptr, ptr %4, align 8
  %10 = getelementptr inbounds nuw %struct.pg_conn, ptr %9, i32 0, i32 50
  %11 = load i32, ptr %10, align 8
  %12 = icmp ne i32 %11, 4
  br i1 %12, label %13, label %16

13:                                               ; preds = %1
  %14 = load ptr, ptr %4, align 8
  %15 = call i32 @PQconnectPoll(ptr noundef %14)
  store i32 %15, ptr %2, align 4
  store i32 1, ptr %6, align 4
  br label %45

16:                                               ; preds = %1
  %17 = load ptr, ptr %4, align 8
  %18 = call i32 @pqReadData(ptr noundef %17)
  store i32 %18, ptr %5, align 4
  %19 = load i32, ptr %5, align 4
  %20 = icmp eq i32 %19, 0
  br i1 %20, label %21, label %22

21:                                               ; preds = %16
  store i32 1, ptr %2, align 4
  store i32 1, ptr %6, align 4
  br label %45

22:                                               ; preds = %16
  %23 = load i32, ptr %5, align 4
  %24 = icmp slt i32 %23, 0
  br i1 %24, label %25, label %32

25:                                               ; preds = %22
  %26 = call ptr @__errno_location() #12
  %27 = load i32, ptr %26, align 4
  %28 = icmp ne i32 %27, 0
  br i1 %28, label %29, label %32

29:                                               ; preds = %25
  %30 = load ptr, ptr %4, align 8
  %31 = getelementptr inbounds nuw %struct.pg_conn, ptr %30, i32 0, i32 50
  store i32 1, ptr %31, align 8
  store i32 0, ptr %2, align 4
  store i32 1, ptr %6, align 4
  br label %45

32:                                               ; preds = %25, %22
  %33 = load i32, ptr %5, align 4
  %34 = icmp sgt i32 %33, 0
  br i1 %34, label %35, label %39

35:                                               ; preds = %32
  %36 = load ptr, ptr %4, align 8
  call void (ptr, ptr, ...) @libpq_append_conn_error(ptr noundef %36, ptr noundef @.str.4)
  %37 = load ptr, ptr %4, align 8
  %38 = getelementptr inbounds nuw %struct.pg_conn, ptr %37, i32 0, i32 50
  store i32 1, ptr %38, align 8
  store i32 0, ptr %2, align 4
  store i32 1, ptr %6, align 4
  br label %45

39:                                               ; preds = %32
  %40 = load ptr, ptr %3, align 8
  %41 = getelementptr inbounds nuw %struct.pg_cancel_conn, ptr %40, i32 0, i32 0
  %42 = getelementptr inbounds nuw %struct.pg_conn, ptr %41, i32 0, i32 50
  store i32 0, ptr %42, align 8
  %43 = load ptr, ptr %4, align 8
  %44 = getelementptr inbounds nuw %struct.pg_conn, ptr %43, i32 0, i32 140
  call void @resetPQExpBuffer(ptr noundef %44)
  store i32 3, ptr %2, align 4
  store i32 1, ptr %6, align 4
  br label %45

45:                                               ; preds = %39, %35, %29, %21, %13
  call void @llvm.lifetime.end.p0(i64 4, ptr %5) #10
  call void @llvm.lifetime.end.p0(i64 8, ptr %4) #10
  %46 = load i32, ptr %2, align 4
  ret i32 %46
}