; Function Attrs: nounwind uwtable
define i32 @PQcancelPoll(ptr noundef %0) local_unnamed_addr #0 {
  %2 = getelementptr inbounds nuw i8, ptr %0, i64 416
  %3 = load i32, ptr %2, align 8
  %.not = icmp eq i32 %3, 4
  br i1 %.not, label %6, label %4

4:                                                ; preds = %1
  %5 = tail call i32 @PQconnectPoll(ptr noundef nonnull %0) #16
  br label %18

6:                                                ; preds = %1
  %7 = tail call i32 @pqReadData(ptr noundef nonnull %0) #16
  %8 = icmp eq i32 %7, 0
  br i1 %8, label %18, label %9

9:                                                ; preds = %6
  %10 = icmp slt i32 %7, 0
  br i1 %10, label %11, label %15

11:                                               ; preds = %9
  %12 = tail call ptr @__errno_location() #18
  %13 = load i32, ptr %12, align 4
  %.not13 = icmp eq i32 %13, 0
  br i1 %.not13, label %16, label %14

14:                                               ; preds = %11
  store i32 1, ptr %2, align 8
  br label %18

15:                                               ; preds = %9
  tail call void (ptr, ptr, ...) @libpq_append_conn_error(ptr noundef nonnull %0, ptr noundef nonnull @.str.4) #16
  store i32 1, ptr %2, align 8
  br label %18

16:                                               ; preds = %11
  store i32 0, ptr %2, align 8
  %17 = getelementptr inbounds nuw i8, ptr %0, i64 1120
  tail call void @resetPQExpBuffer(ptr noundef nonnull %17) #16
  br label %18

18:                                               ; preds = %6, %16, %15, %14, %4
  %.0 = phi i32 [ %5, %4 ], [ 0, %14 ], [ 0, %15 ], [ 3, %16 ], [ 1, %6 ]
  ret i32 %.0
}